target datalayout = "e-m:e-p270:32:32-p271:32:32-p272:64:64-i64:64-i128:128-f80:128-n8:16:32:64-S128"
target triple = "x86_64-pc-linux-gnu"

; Function Attrs: nounwind uwtable
define internal i32 @archive_read_format_zip_streamable_bid(ptr noundef %0, i32 noundef %1) #0 {
  %3 = alloca i32, align 4
  %4 = alloca ptr, align 8
  %5 = alloca i32, align 4
  %6 = alloca ptr, align 8
  %7 = alloca i32, align 4
  store ptr %0, ptr %4, align 8, !tbaa !11
  store i32 %1, ptr %5, align 4, !tbaa !9
  call void @llvm.lifetime.start.p0(i64 8, ptr %6) #11
  %8 = load ptr, ptr %4, align 8, !tbaa !11
  %9 = call ptr @__archive_read_ahead(ptr noundef %8, i64 noundef 4, ptr noundef null)
  store ptr %9, ptr %6, align 8, !tbaa !45
  %10 = icmp eq ptr %9, null
  br i1 %10, label %11, label %12

11:                                               ; preds = %2
  store i32 -1, ptr %3, align 4
  store i32 1, ptr %7, align 4
  br label %99

12:                                               ; preds = %2
  %13 = load ptr, ptr %6, align 8, !tbaa !45
  %14 = getelementptr inbounds i8, ptr %13, i64 0
  %15 = load i8, ptr %14, align 1, !tbaa !46
  %16 = sext i8 %15 to i32
  %17 = icmp eq i32 %16, 80
  br i1 %17, label %18, label %98

18:                                               ; preds = %12
  %19 = load ptr, ptr %6, align 8, !tbaa !45
  %20 = getelementptr inbounds i8, ptr %19, i64 1
  %21 = load i8, ptr %20, align 1, !tbaa !46
  %22 = sext i8 %21 to i32
  %23 = icmp eq i32 %22, 75
  br i1 %23, label %24, label %98

24:                                               ; preds = %18
  %25 = load ptr, ptr %6, align 8, !tbaa !45
  %26 = getelementptr inbounds i8, ptr %25, i64 2
  %27 = load i8, ptr %26, align 1, !tbaa !46
  %28 = sext i8 %27 to i32
  %29 = icmp eq i32 %28, 1
  br i1 %29, label %30, label %36

30:                                               ; preds = %24
  %31 = load ptr, ptr %6, align 8, !tbaa !45
  %32 = getelementptr inbounds i8, ptr %31, i64 3
  %33 = load i8, ptr %32, align 1, !tbaa !46
  %34 = sext i8 %33 to i32
  %35 = icmp eq i32 %34, 2
  br i1 %35, label %96, label %36

36:                                               ; preds = %30, %24
  %37 = load ptr, ptr %6, align 8, !tbaa !45
  %38 = getelementptr inbounds i8, ptr %37, i64 2
  %39 = load i8, ptr %38, align 1, !tbaa !46
  %40 = sext i8 %39 to i32
  %41 = icmp eq i32 %40, 3
  br i1 %41, label %42, label %48

42:                                               ; preds = %36
  %43 = load ptr, ptr %6, align 8, !tbaa !45
  %44 = getelementptr inbounds i8, ptr %43, i64 3
  %45 = load i8, ptr %44, align 1, !tbaa !46
  %46 = sext i8 %45 to i32
  %47 = icmp eq i32 %46, 4
  br i1 %47, label %96, label %48

48:                                               ; preds = %42, %36
  %49 = load ptr, ptr %6, align 8, !tbaa !45
  %50 = getelementptr inbounds i8, ptr %49, i64 2
  %51 = load i8, ptr %50, align 1, !tbaa !46
  %52 = sext i8 %51 to i32
  %53 = icmp eq i32 %52, 5
  br i1 %53, label %54, label %60

54:                                               ; preds = %48
  %55 = load ptr, ptr %6, align 8, !tbaa !45
  %56 = getelementptr inbounds i8, ptr %55, i64 3
  %57 = load i8, ptr %56, align 1, !tbaa !46
  %58 = sext i8 %57 to i32
  %59 = icmp eq i32 %58, 6
  br i1 %59, label %96, label %60

60:                                               ; preds = %54, %48
  %61 = load ptr, ptr %6, align 8, !tbaa !45
  %62 = getelementptr inbounds i8, ptr %61, i64 2
  %63 = load i8, ptr %62, align 1, !tbaa !46
  %64 = sext i8 %63 to i32
  %65 = icmp eq i32 %64, 6
  br i1 %65, label %66, label %72

66:                                               ; preds = %60
  %67 = load ptr, ptr %6, align 8, !tbaa !45
  %68 = getelementptr inbounds i8, ptr %67, i64 3
  %69 = load i8, ptr %68, align 1, !tbaa !46
  %70 = sext i8 %69 to i32
  %71 = icmp eq i32 %70, 6
  br i1 %71, label %96, label %72

72:                                               ; preds = %66, %60
  %73 = load ptr, ptr %6, align 8, !tbaa !45
  %74 = getelementptr inbounds i8, ptr %73, i64 2
  %75 = load i8, ptr %74, align 1, !tbaa !46
  %76 = sext i8 %75 to i32
  %77 = icmp eq i32 %76, 7
  br i1 %77, label %78, label %84

78:                                               ; preds = %72
  %79 = load ptr, ptr %6, align 8, !tbaa !45
  %80 = getelementptr inbounds i8, ptr %79, i64 3
  %81 = load i8, ptr %80, align 1, !tbaa !46
  %82 = sext i8 %81 to i32
  %83 = icmp eq i32 %82, 8
  br i1 %83, label %96, label %84

84:                                               ; preds = %78, %72
  %85 = load ptr, ptr %6, align 8, !tbaa !45
  %86 = getelementptr inbounds i8, ptr %85, i64 2
  %87 = load i8, ptr %86, align 1, !tbaa !46
  %88 = sext i8 %87 to i32
  %89 = icmp eq i32 %88, 48
  br i1 %89, label %90, label %97

90:                                               ; preds = %84
  %91 = load ptr, ptr %6, align 8, !tbaa !45
  %92 = getelementptr inbounds i8, ptr %91, i64 3
  %93 = load i8, ptr %92, align 1, !tbaa !46
  %94 = sext i8 %93 to i32
  %95 = icmp eq i32 %94, 48
  br i1 %95, label %96, label %97

96:                                               ; preds = %90, %78, %66, %54, %42, %30
  store i32 29, ptr %3, align 4
  store i32 1, ptr %7, align 4
  br label %99

97:                                               ; preds = %90, %84
  br label %98

98:                                               ; preds = %97, %18, %12
  store i32 0, ptr %3, align 4
  store i32 1, ptr %7, align 4
  br label %99

99:                                               ; preds = %98, %96, %11
  call void @llvm.lifetime.end.p0(i64 8, ptr %6) #11
  %100 = load i32, ptr %3, align 4
  ret i32 %100
}