; Function Attrs: nounwind uwtable
define internal range(i32 -1, 30) i32 @archive_read_format_zip_streamable_bid(ptr noundef %0, i32 %1) #0 {
  %3 = tail call ptr @__archive_read_ahead(ptr noundef %0, i64 noundef 4, ptr noundef null) #21
  %4 = icmp eq ptr %3, null
  br i1 %4, label %39, label %5

5:                                                ; preds = %2
  %6 = load i8, ptr %3, align 1, !tbaa !36
  %7 = icmp eq i8 %6, 80
  br i1 %7, label %8, label %.thread22

8:                                                ; preds = %5
  %9 = getelementptr inbounds nuw i8, ptr %3, i64 1
  %10 = load i8, ptr %9, align 1, !tbaa !36
  %11 = icmp eq i8 %10, 75
  br i1 %11, label %12, label %.thread22

12:                                               ; preds = %8
  %13 = getelementptr inbounds nuw i8, ptr %3, i64 2
  %14 = load i8, ptr %13, align 1, !tbaa !36
  switch i8 %14, label %.thread22 [
    i8 1, label %15
    i8 3, label %19
    i8 5, label %23
    i8 6, label %27
    i8 7, label %31
    i8 48, label %35
  ]

15:                                               ; preds = %12
  %16 = getelementptr inbounds nuw i8, ptr %3, i64 3
  %17 = load i8, ptr %16, align 1, !tbaa !36
  %18 = icmp eq i8 %17, 2
  br i1 %18, label %39, label %.thread22

19:                                               ; preds = %12
  %20 = getelementptr inbounds nuw i8, ptr %3, i64 3
  %21 = load i8, ptr %20, align 1, !tbaa !36
  %22 = icmp eq i8 %21, 4
  br i1 %22, label %39, label %.thread22

23:                                               ; preds = %12
  %24 = getelementptr inbounds nuw i8, ptr %3, i64 3
  %25 = load i8, ptr %24, align 1, !tbaa !36
  %26 = icmp eq i8 %25, 6
  br i1 %26, label %39, label %.thread22

27:                                               ; preds = %12
  %28 = getelementptr inbounds nuw i8, ptr %3, i64 3
  %29 = load i8, ptr %28, align 1, !tbaa !36
  %30 = icmp eq i8 %29, 6
  br i1 %30, label %39, label %.thread22

31:                                               ; preds = %12
  %32 = getelementptr inbounds nuw i8, ptr %3, i64 3
  %33 = load i8, ptr %32, align 1, !tbaa !36
  %34 = icmp eq i8 %33, 8
  br i1 %34, label %39, label %.thread22

35:                                               ; preds = %12
  %36 = getelementptr inbounds nuw i8, ptr %3, i64 3
  %37 = load i8, ptr %36, align 1, !tbaa !36
  %38 = icmp eq i8 %37, 48
  br i1 %38, label %39, label %.thread22

.thread22:                                        ; preds = %12, %15, %19, %23, %27, %31, %35, %8, %5
  br label %39

39:                                               ; preds = %15, %19, %23, %27, %31, %35, %2, %.thread22
  %.0 = phi i32 [ 0, %.thread22 ], [ -1, %2 ], [ 29, %35 ], [ 29, %31 ], [ 29, %27 ], [ 29, %23 ], [ 29, %19 ], [ 29, %15 ]
  ret i32 %.0
}